target datalayout = "e-m:e-p270:32:32-p271:32:32-p272:64:64-i64:64-i128:128-f80:128-n8:16:32:64-S128"
target triple = "x86_64-pc-linux-gnu"

%struct.Vmem = type { ptr, i64, i64 }
%struct.ParseContext_ = type { %struct.TokenData, i32, %union.SourceSpan, %union.SourceSpan, ptr, %struct.Lexer }
%struct.TokenData = type { ptr, i64, %union.anon.86 }
%union.anon.86 = type { %struct.anon.89 }
%struct.anon.89 = type { %struct.Int128_, i8 }
%struct.Int128_ = type { i64, i64 }
%union.SourceSpan = type { i64 }
%struct.Lexer = type { ptr, ptr, ptr, ptr, i32, i32, ptr, ptr, ptr, %struct.TokenData, %union.SourceSpan, i32, i32 }
%struct.Ast_ = type { %union.SourceSpan, i32, i8, %union.anon.62 }
%union.anon.62 = type { %struct.AstDocDirective_ }
%struct.AstDocDirective_ = type { i8, %union.anon.65 }
%union.anon.65 = type { %struct.anon.66 }
%struct.anon.66 = type { ptr, %union.SourceSpan, i8 }
%struct.Expr_ = type { ptr, %union.SourceSpan, i16, %union.anon.30 }
%union.anon.30 = type { %struct.ExprAnySwitch }
%struct.ExprAnySwitch = type { i8, %union.anon.32 }
%union.anon.32 = type { %struct.anon.33 }
%struct.anon.33 = type { ptr, %union.SourceSpan, ptr }
%struct.Decl_ = type { ptr, ptr, %union.SourceSpan, i64, %union.anon, i32, %union.anon.1, i64, ptr, ptr, ptr, %union.anon.2 }
%union.anon = type { ptr }
%union.anon.1 = type { i16 }
%union.anon.2 = type { %struct.FuncDecl }
%struct.FuncDecl = type { i32, [4 x i8], %struct.Signature_, i32, i32, %union.anon.9 }
%struct.Signature_ = type <{ %struct.CalleeAttributes, i16, i8, i32, i32, [4 x i8], ptr }>
%struct.CalleeAttributes = type { i8 }
%union.anon.9 = type { %struct.anon.10 }
%struct.anon.10 = type { i16, %union.anon.11 }
%union.anon.11 = type { ptr }
%struct.FlowCommon = type { i32, i8 }
%struct.AstSwitchStmt = type { %struct.FlowCommon, %union.anon.81 }
%union.anon.81 = type { %struct.anon.82 }
%struct.anon.82 = type { i32, i32, ptr, ptr }
%struct.LabelDecl = type { i32, i8, %union.anon.13, ptr, i32, i32 }
%union.anon.13 = type { ptr }

@poisoned_ast = external global ptr, align 8
@.str.12 = private unnamed_addr constant [15 x i8] c"Expected '%s'.\00", align 1
@expr_arena = external global %struct.Vmem, align 8
@ast_arena = external global %struct.Vmem, align 8
@.str.19 = private unnamed_addr constant [55 x i8] c"The name must be followed by a ':', did you forget it?\00", align 1
@poisoned_decl = external global ptr, align 8
@decl_arena = external global %struct.Vmem, align 8

; Function Attrs: nounwind uwtable
define internal i32 @astid(ptr noundef %0) #0 {
  %2 = alloca ptr, align 8
  store ptr %0, ptr %2, align 8
  %3 = load ptr, ptr %2, align 8
  %4 = load ptr, ptr @ast_arena, align 8
  %5 = ptrtoint ptr %3 to i64
  %6 = ptrtoint ptr %4 to i64
  %7 = sub i64 %5, %6
  %8 = sdiv exact i64 %7, 48
  %9 = trunc i64 %8 to i32
  ret i32 %9
}

; Function Attrs: nounwind uwtable
define internal i32 @exprid(ptr noundef %0) #0 {
  %2 = alloca ptr, align 8
  store ptr %0, ptr %2, align 8
  %3 = load ptr, ptr %2, align 8
  %4 = load ptr, ptr @expr_arena, align 8
  %5 = ptrtoint ptr %3 to i64
  %6 = ptrtoint ptr %4 to i64
  %7 = sub i64 %5, %6
  %8 = sdiv exact i64 %7, 56
  %9 = trunc i64 %8 to i32
  ret i32 %9
}

; Function Attrs: nounwind uwtable
define internal i32 @declid(ptr noundef %0) #0 {
  %2 = alloca ptr, align 8
  store ptr %0, ptr %2, align 8
  %3 = load ptr, ptr %2, align 8
  %4 = load ptr, ptr @decl_arena, align 8
  %5 = ptrtoint ptr %3 to i64
  %6 = ptrtoint ptr %4 to i64
  %7 = sub i64 %5, %6
  %8 = sdiv exact i64 %7, 136
  %9 = trunc i64 %8 to i32
  ret i32 %9
}

; Function Attrs: nounwind uwtable
define internal ptr @parse_optional_label(ptr noundef %0, ptr noundef %1) #0 {
  %3 = alloca ptr, align 8
  %4 = alloca ptr, align 8
  %5 = alloca i32, align 4
  %6 = alloca ptr, align 8
  %7 = alloca i32, align 4
  %8 = alloca ptr, align 8
  %9 = alloca ptr, align 8
  %10 = alloca ptr, align 8
  %11 = alloca ptr, align 8
  store ptr %0, ptr %9, align 8
  store ptr %1, ptr %10, align 8
  %12 = load ptr, ptr %9, align 8
  store ptr %12, ptr %4, align 8
  store i32 65, ptr %5, align 4
  %13 = load ptr, ptr %4, align 8
  %14 = getelementptr inbounds %struct.ParseContext_, ptr %13, i32 0, i32 1
  %15 = load i32, ptr %14, align 8
  %16 = load i32, ptr %5, align 4
  %17 = icmp eq i32 %15, %16
  br i1 %17, label %19, label %18

18:                                               ; preds = %2
  store ptr null, ptr %8, align 8
  br label %46

19:                                               ; preds = %2
  %20 = load ptr, ptr %9, align 8
  store ptr %20, ptr %3, align 8
  %21 = load ptr, ptr %3, align 8
  %22 = getelementptr inbounds %struct.TokenData, ptr %21, i32 0, i32 2
  %23 = load ptr, ptr %22, align 8
  %24 = load ptr, ptr %9, align 8
  %25 = getelementptr inbounds %struct.ParseContext_, ptr %24, i32 0, i32 2
  %26 = getelementptr inbounds %union.SourceSpan, ptr %25, i32 0, i32 0
  %27 = load i64, ptr %26, align 8
  %28 = call ptr @decl_new(i32 noundef 20, ptr noundef %23, i64 %27)
  store ptr %28, ptr %11, align 8
  %29 = load ptr, ptr %10, align 8
  %30 = call i32 @astid(ptr noundef %29)
  %31 = load ptr, ptr %11, align 8
  %32 = getelementptr inbounds %struct.Decl_, ptr %31, i32 0, i32 11
  %33 = getelementptr inbounds %struct.LabelDecl, ptr %32, i32 0, i32 5
  store i32 %30, ptr %33, align 4
  %34 = load ptr, ptr %9, align 8
  store ptr %34, ptr %6, align 8
  store i32 65, ptr %7, align 4
  %35 = load ptr, ptr %6, align 8
  call void @advance(ptr noundef %35) #4
  %36 = load ptr, ptr %9, align 8
  %37 = call zeroext i1 @try_consume(ptr noundef %36, i32 noundef 7)
  br i1 %37, label %44, label %38

38:                                               ; preds = %19
  %39 = load ptr, ptr %11, align 8
  %40 = getelementptr inbounds %struct.Decl_, ptr %39, i32 0, i32 2
  %41 = getelementptr inbounds %union.SourceSpan, ptr %40, i32 0, i32 0
  %42 = load i64, ptr %41, align 8
  call void (i64, ptr, ...) @sema_error_at(i64 %42, ptr noundef @.str.19)
  %43 = load ptr, ptr @poisoned_decl, align 8
  store ptr %43, ptr %8, align 8
  br label %46

44:                                               ; preds = %19
  %45 = load ptr, ptr %11, align 8
  store ptr %45, ptr %8, align 8
  br label %46

46:                                               ; preds = %44, %38, %18
  %47 = load ptr, ptr %8, align 8
  ret ptr %47
}

; Function Attrs: nounwind uwtable
define internal ptr @ast_calloc() #0 {
  %1 = call ptr @vmem_alloc(ptr noundef @ast_arena, i64 noundef 48)
  ret ptr %1
}

; Function Attrs: nounwind uwtable
define internal ptr @parse_switch_stmt(ptr noundef %0) #0 {
  %2 = alloca ptr, align 8
  %3 = alloca ptr, align 8
  %4 = alloca i32, align 4
  %5 = alloca %union.SourceSpan, align 8
  %6 = alloca i32, align 4
  %7 = alloca ptr, align 8
  %8 = alloca ptr, align 8
  %9 = alloca ptr, align 8
  %10 = alloca i32, align 4
  %11 = alloca i1, align 1
  %12 = alloca ptr, align 8
  %13 = alloca i32, align 4
  %14 = alloca ptr, align 8
  %15 = alloca ptr, align 8
  %16 = alloca ptr, align 8
  %17 = alloca ptr, align 8
  %18 = alloca ptr, align 8
  store ptr %0, ptr %15, align 8
  %19 = load ptr, ptr %15, align 8
  %20 = getelementptr inbounds %struct.ParseContext_, ptr %19, i32 0, i32 2
  %21 = getelementptr inbounds %union.SourceSpan, ptr %20, i32 0, i32 0
  %22 = load i64, ptr %21, align 8
  store i64 %22, ptr %5, align 8
  store i32 27, ptr %6, align 4
  %23 = call ptr @ast_calloc()
  store ptr %23, ptr %7, align 8
  %24 = load ptr, ptr %7, align 8
  call void @llvm.memcpy.p0.p0.i64(ptr align 8 %24, ptr align 8 %5, i64 8, i1 false)
  %25 = load i32, ptr %6, align 4
  %26 = load ptr, ptr %7, align 8
  %27 = getelementptr inbounds %struct.Ast_, ptr %26, i32 0, i32 2
  %28 = trunc i32 %25 to i8
  store i8 %28, ptr %27, align 4
  %29 = load ptr, ptr %7, align 8
  store ptr %29, ptr %16, align 8
  %30 = load ptr, ptr %15, align 8
  store ptr %30, ptr %9, align 8
  store i32 139, ptr %10, align 4
  %31 = load ptr, ptr %9, align 8
  call void @advance(ptr noundef %31) #4
  %32 = load ptr, ptr %15, align 8
  %33 = load ptr, ptr %16, align 8
  %34 = call ptr @parse_optional_label(ptr noundef %32, ptr noundef %33)
  store ptr %34, ptr %17, align 8
  %35 = load ptr, ptr %17, align 8
  store ptr %35, ptr %2, align 8
  %36 = load ptr, ptr %2, align 8
  %37 = icmp ne ptr %36, null
  br i1 %37, label %38, label %45

38:                                               ; preds = %1
  %39 = load ptr, ptr %2, align 8
  %40 = getelementptr inbounds %struct.Decl_, ptr %39, i32 0, i32 3
  %41 = load i64, ptr %40, align 8
  %42 = and i64 %41, 127
  %43 = trunc i64 %42 to i32
  %44 = icmp ne i32 %43, 0
  br label %45

45:                                               ; preds = %38, %1
  %46 = phi i1 [ true, %1 ], [ %44, %38 ]
  br i1 %46, label %49, label %47

47:                                               ; preds = %45
  %48 = load ptr, ptr @poisoned_ast, align 8
  store ptr %48, ptr %14, align 8
  br label %127

49:                                               ; preds = %45
  %50 = load ptr, ptr %17, align 8
  %51 = icmp ne ptr %50, null
  br i1 %51, label %52, label %55

52:                                               ; preds = %49
  %53 = load ptr, ptr %17, align 8
  %54 = call i32 @declid(ptr noundef %53)
  br label %56

55:                                               ; preds = %49
  br label %56

56:                                               ; preds = %55, %52
  %57 = phi i32 [ %54, %52 ], [ 0, %55 ]
  %58 = load ptr, ptr %16, align 8
  %59 = getelementptr inbounds %struct.Ast_, ptr %58, i32 0, i32 3
  %60 = getelementptr inbounds %struct.AstSwitchStmt, ptr %59, i32 0, i32 0
  %61 = getelementptr inbounds %struct.FlowCommon, ptr %60, i32 0, i32 0
  store i32 %57, ptr %61, align 8
  %62 = load ptr, ptr %15, align 8
  %63 = call zeroext i1 @try_consume(ptr noundef %62, i32 noundef 19)
  br i1 %63, label %69, label %64

64:                                               ; preds = %56
  %65 = load ptr, ptr %16, align 8
  %66 = getelementptr inbounds %struct.Ast_, ptr %65, i32 0, i32 3
  %67 = getelementptr inbounds %struct.AstSwitchStmt, ptr %66, i32 0, i32 1
  %68 = getelementptr inbounds %struct.anon.82, ptr %67, i32 0, i32 0
  store i32 0, ptr %68, align 8
  br label %116

69:                                               ; preds = %56
  %70 = load ptr, ptr %15, align 8
  %71 = call ptr @parse_cond(ptr noundef %70)
  store ptr %71, ptr %18, align 8
  %72 = load ptr, ptr %18, align 8
  store ptr %72, ptr %8, align 8
  %73 = load ptr, ptr %8, align 8
  %74 = icmp eq ptr %73, null
  br i1 %74, label %82, label %75

75:                                               ; preds = %69
  %76 = load ptr, ptr %8, align 8
  %77 = getelementptr inbounds %struct.Expr_, ptr %76, i32 0, i32 2
  %78 = load i16, ptr %77, align 8
  %79 = and i16 %78, 255
  %80 = zext i16 %79 to i32
  %81 = icmp ne i32 %80, 0
  br label %82

82:                                               ; preds = %75, %69
  %83 = phi i1 [ true, %69 ], [ %81, %75 ]
  br i1 %83, label %86, label %84

84:                                               ; preds = %82
  %85 = load ptr, ptr @poisoned_ast, align 8
  store ptr %85, ptr %14, align 8
  br label %127

86:                                               ; preds = %82
  %87 = load ptr, ptr %18, align 8
  %88 = call i32 @exprid(ptr noundef %87)
  %89 = load ptr, ptr %16, align 8
  %90 = getelementptr inbounds %struct.Ast_, ptr %89, i32 0, i32 3
  %91 = getelementptr inbounds %struct.AstSwitchStmt, ptr %90, i32 0, i32 1
  %92 = getelementptr inbounds %struct.anon.82, ptr %91, i32 0, i32 0
  store i32 %88, ptr %92, align 8
  br label %93

93:                                               ; preds = %86
  %94 = load ptr, ptr %15, align 8
  store ptr %94, ptr %12, align 8
  store i32 26, ptr %13, align 4
  %95 = load ptr, ptr %12, align 8
  %96 = load i32, ptr %13, align 4
  store ptr %95, ptr %3, align 8
  store i32 %96, ptr %4, align 4
  %97 = load ptr, ptr %3, align 8
  %98 = getelementptr inbounds %struct.ParseContext_, ptr %97, i32 0, i32 1
  %99 = load i32, ptr %98, align 8
  %100 = load i32, ptr %4, align 4
  %101 = icmp eq i32 %99, %100
  br i1 %101, label %102, label %103

102:                                              ; preds = %93
  store i1 true, ptr %11, align 1
  br label %109

103:                                              ; preds = %93
  %104 = load ptr, ptr %12, align 8
  %105 = getelementptr inbounds %struct.ParseContext_, ptr %104, i32 0, i32 2
  %106 = load i32, ptr %13, align 4
  %107 = call ptr @token_type_to_string(i32 noundef %106) #4
  %108 = load i64, ptr %105, align 8
  call void (i64, ptr, ...) @sema_error_at(i64 %108, ptr noundef @.str.12, ptr noundef %107) #4
  store i1 false, ptr %11, align 1
  br label %109

109:                                              ; preds = %103, %102
  %110 = load i1, ptr %11, align 1
  br i1 %110, label %113, label %111

111:                                              ; preds = %109
  %112 = load ptr, ptr @poisoned_ast, align 8
  store ptr %112, ptr %14, align 8
  br label %127

113:                                              ; preds = %109
  %114 = load ptr, ptr %15, align 8
  call void @advance(ptr noundef %114)
  br label %115

115:                                              ; preds = %113
  br label %116

116:                                              ; preds = %115, %64
  %117 = load ptr, ptr %15, align 8
  %118 = load ptr, ptr %16, align 8
  %119 = getelementptr inbounds %struct.Ast_, ptr %118, i32 0, i32 3
  %120 = getelementptr inbounds %struct.AstSwitchStmt, ptr %119, i32 0, i32 1
  %121 = getelementptr inbounds %struct.anon.82, ptr %120, i32 0, i32 2
  %122 = call zeroext i1 @parse_switch_body(ptr noundef %117, ptr noundef %121, i32 noundef 109, i32 noundef 114)
  br i1 %122, label %125, label %123

123:                                              ; preds = %116
  %124 = load ptr, ptr @poisoned_ast, align 8
  store ptr %124, ptr %14, align 8
  br label %127

125:                                              ; preds = %116
  %126 = load ptr, ptr %16, align 8
  store ptr %126, ptr %14, align 8
  br label %127

127:                                              ; preds = %125, %123, %111, %84, %47
  %128 = load ptr, ptr %14, align 8
  ret ptr %128
}