; Function Attrs: nounwind uwtable
define internal fastcc ptr @parse_switch_stmt(ptr noundef %0) unnamed_addr #0 {
  %2 = getelementptr inbounds i8, ptr %0, i64 48
  %3 = load i64, ptr %2, align 8
  %4 = tail call ptr @vmem_alloc(ptr noundef nonnull @ast_arena, i64 noundef 48) #5
  store i64 %3, ptr %4, align 8
  %5 = getelementptr inbounds i8, ptr %4, i64 12
  store i8 27, ptr %5, align 4
  tail call void @advance(ptr noundef %0) #5
  %6 = getelementptr inbounds i8, ptr %0, i64 40
  %7 = load i32, ptr %6, align 8
  %8 = icmp eq i32 %7, 65
  br i1 %8, label %9, label %.critedge43

9:                                                ; preds = %1
  %10 = getelementptr inbounds i8, ptr %0, i64 16
  %11 = load ptr, ptr %10, align 8
  %12 = load i64, ptr %2, align 8
  %13 = tail call ptr @decl_new(i32 noundef 20, ptr noundef %11, i64 %12) #5
  %14 = load ptr, ptr @ast_arena, align 8
  %15 = ptrtoint ptr %4 to i64
  %16 = ptrtoint ptr %14 to i64
  %17 = sub i64 %15, %16
  %18 = sdiv exact i64 %17, 48
  %19 = trunc i64 %18 to i32
  %20 = getelementptr inbounds i8, ptr %13, i64 108
  store i32 %19, ptr %20, align 4
  tail call void @advance(ptr noundef nonnull %0) #5
  %21 = tail call zeroext i1 @try_consume(ptr noundef nonnull %0, i32 noundef 7) #5
  br i1 %21, label %parse_optional_label.exit.thread48, label %parse_optional_label.exit

parse_optional_label.exit:                        ; preds = %9
  %22 = getelementptr inbounds i8, ptr %13, i64 16
  %23 = load i64, ptr %22, align 8
  tail call void (i64, ptr, ...) @sema_error_at(i64 %23, ptr noundef nonnull @.str.19) #5
  %24 = load ptr, ptr @poisoned_decl, align 8
  %.not = icmp eq ptr %24, null
  br i1 %.not, label %.critedge43, label %parse_optional_label.exit.thread48

parse_optional_label.exit.thread48:               ; preds = %9, %parse_optional_label.exit
  %.0.i51 = phi ptr [ %24, %parse_optional_label.exit ], [ %13, %9 ]
  %25 = getelementptr inbounds i8, ptr %.0.i51, i64 24
  %26 = load i64, ptr %25, align 8
  %27 = and i64 %26, 127
  %.not41 = icmp eq i64 %27, 0
  br i1 %.not41, label %28, label %.critedge

28:                                               ; preds = %parse_optional_label.exit.thread48
  %29 = load ptr, ptr @poisoned_ast, align 8
  br label %64

.critedge:                                        ; preds = %parse_optional_label.exit.thread48
  %30 = load ptr, ptr @decl_arena, align 8
  %31 = ptrtoint ptr %.0.i51 to i64
  %32 = ptrtoint ptr %30 to i64
  %33 = sub i64 %31, %32
  %34 = sdiv exact i64 %33, 136
  %35 = trunc i64 %34 to i32
  br label %.critedge43

.critedge43:                                      ; preds = %1, %parse_optional_label.exit, %.critedge
  %36 = phi i32 [ %35, %.critedge ], [ 0, %parse_optional_label.exit ], [ 0, %1 ]
  %37 = getelementptr inbounds i8, ptr %4, i64 16
  store i32 %36, ptr %37, align 8
  %38 = tail call zeroext i1 @try_consume(ptr noundef nonnull %0, i32 noundef 19) #5
  br i1 %38, label %41, label %39

39:                                               ; preds = %.critedge43
  %40 = getelementptr inbounds i8, ptr %4, i64 24
  store i32 0, ptr %40, align 8
  br label %60

41:                                               ; preds = %.critedge43
  %42 = tail call ptr @parse_cond(ptr noundef nonnull %0) #5
  %43 = icmp eq ptr %42, null
  br i1 %43, label %.critedge2, label %44

44:                                               ; preds = %41
  %45 = getelementptr inbounds i8, ptr %42, i64 16
  %46 = load i16, ptr %45, align 8
  %47 = and i16 %46, 255
  %.not42 = icmp eq i16 %47, 0
  br i1 %.not42, label %49, label %.split

.split:                                           ; preds = %44
  %48 = ptrtoint ptr %42 to i64
  br label %.critedge2

49:                                               ; preds = %44
  %50 = load ptr, ptr @poisoned_ast, align 8
  br label %64

.critedge2:                                       ; preds = %41, %.split
  %.sink = phi i64 [ %48, %.split ], [ 0, %41 ]
  %.sink53 = load ptr, ptr @expr_arena, align 8
  %51 = ptrtoint ptr %.sink53 to i64
  %52 = sub i64 %.sink, %51
  %phi.call.in = sdiv exact i64 %52, 56
  %phi.call = trunc i64 %phi.call.in to i32
  %53 = getelementptr inbounds i8, ptr %4, i64 24
  store i32 %phi.call, ptr %53, align 8
  %54 = load i32, ptr %6, align 8
  %55 = icmp eq i32 %54, 26
  br i1 %55, label %.critedge45, label %56

56:                                               ; preds = %.critedge2
  %57 = tail call ptr @token_type_to_string(i32 noundef 26) #5
  %58 = load i64, ptr %2, align 8
  tail call void (i64, ptr, ...) @sema_error_at(i64 %58, ptr noundef nonnull @.str.12, ptr noundef %57) #5
  %59 = load ptr, ptr @poisoned_ast, align 8
  br label %64

.critedge45:                                      ; preds = %.critedge2
  tail call void @advance(ptr noundef nonnull %0) #5
  br label %60

60:                                               ; preds = %.critedge45, %39
  %61 = getelementptr inbounds i8, ptr %4, i64 32
  %62 = tail call zeroext i1 @parse_switch_body(ptr noundef nonnull %0, ptr noundef nonnull %61, i32 noundef 109, i32 noundef 114)
  %63 = load ptr, ptr @poisoned_ast, align 8
  %spec.select = select i1 %62, ptr %4, ptr %63
  br label %64

64:                                               ; preds = %60, %56, %49, %28
  %.037 = phi ptr [ %59, %56 ], [ %50, %49 ], [ %29, %28 ], [ %spec.select, %60 ]
  ret ptr %.037
}